target datalayout = "e-m:e-p270:32:32-p271:32:32-p272:64:64-i64:64-i128:128-f80:128-n8:16:32:64-S128"
target triple = "x86_64-pc-linux-gnu"

@.str.33 = private unnamed_addr constant [17 x i8] c"getnameinfo: %s\0A\00", align 1

; Function Attrs: nounwind uwtable
define internal i32 @udp_port(ptr noundef %0, i32 noundef %1) #0 {
  %3 = alloca i32, align 4
  %4 = alloca ptr, align 8
  %5 = alloca i32, align 4
  %6 = alloca [13 x i8], align 1
  %7 = alloca i32, align 4
  %8 = alloca i32, align 4
  store ptr %0, ptr %4, align 8, !tbaa !31
  store i32 %1, ptr %5, align 4, !tbaa !20
  call void @llvm.lifetime.start.p0(i64 13, ptr %6) #9
  call void @llvm.lifetime.start.p0(i64 4, ptr %7) #9
  %9 = load ptr, ptr %4, align 8, !tbaa !31
  %10 = load i32, ptr %5, align 4, !tbaa !20
  %11 = getelementptr inbounds [13 x i8], ptr %6, i64 0, i64 0
  %12 = call i32 @getnameinfo(ptr noundef %9, i32 noundef %10, ptr noundef null, i32 noundef 0, ptr noundef %11, i32 noundef 13, i32 noundef 2)
  store i32 %12, ptr %7, align 4, !tbaa !20
  %13 = icmp ne i32 %12, 0
  br i1 %13, label %14, label %17

14:                                               ; preds = %2
  %15 = load i32, ptr %7, align 4, !tbaa !20
  %16 = call ptr @gai_strerror(i32 noundef %15) #9
  call void (ptr, i32, ptr, ...) @av_log(ptr noundef null, i32 noundef 16, ptr noundef @.str.33, ptr noundef %16)
  store i32 -1, ptr %3, align 4
  store i32 1, ptr %8, align 4
  br label %21

17:                                               ; preds = %2
  %18 = getelementptr inbounds [13 x i8], ptr %6, i64 0, i64 0
  %19 = call i64 @strtol(ptr noundef %18, ptr noundef null, i32 noundef 10) #9
  %20 = trunc i64 %19 to i32
  store i32 %20, ptr %3, align 4
  store i32 1, ptr %8, align 4
  br label %21

21:                                               ; preds = %17, %14
  call void @llvm.lifetime.end.p0(i64 4, ptr %7) #9
  call void @llvm.lifetime.end.p0(i64 13, ptr %6) #9
  %22 = load i32, ptr %3, align 4
  ret i32 %22
}