; Function Attrs: nounwind uwtable
define internal fastcc i32 @udp_port(ptr noundef nonnull %0, i32 noundef %1) unnamed_addr #0 {
  %3 = alloca [13 x i8], align 1
  call void @llvm.lifetime.start.p0(i64 13, ptr nonnull %3) #11
  %4 = call i32 @getnameinfo(ptr noundef nonnull %0, i32 noundef %1, ptr noundef null, i32 noundef 0, ptr noundef nonnull %3, i32 noundef 13, i32 noundef 2) #11
  %.not = icmp eq i32 %4, 0
  br i1 %.not, label %7, label %5

5:                                                ; preds = %2
  %6 = call ptr @gai_strerror(i32 noundef %4) #11
  call void (ptr, i32, ptr, ...) @av_log(ptr noundef null, i32 noundef 16, ptr noundef nonnull @.str.33, ptr noundef %6) #11
  br label %10

7:                                                ; preds = %2
  %8 = call i64 @strtol(ptr noundef nonnull captures(none) %3, ptr noundef null, i32 noundef 10) #11
  %9 = trunc i64 %8 to i32
  br label %10

10:                                               ; preds = %7, %5
  %.0 = phi i32 [ -1, %5 ], [ %9, %7 ]
  call void @llvm.lifetime.end.p0(i64 13, ptr nonnull %3) #11
  ret i32 %.0
}